target datalayout = "e-m:e-p270:32:32-p271:32:32-p272:64:64-i64:64-i128:128-f80:128-n8:16:32:64-S128"
target triple = "x86_64-pc-linux-gnu"

%struct.Aig_CMan_t_ = type { i32, i32, i32, i32, i32, i32, ptr, i32, i32, [0 x i8] }

; Function Attrs: nounwind uwtable
define void @Aig_CManStoreNum(ptr noundef %0, i32 noundef %1) #0 {
  %3 = alloca ptr, align 8
  %4 = alloca i32, align 4
  store ptr %0, ptr %3, align 8, !tbaa !53
  store i32 %1, ptr %4, align 4, !tbaa !10
  br label %5

5:                                                ; preds = %9, %2
  %6 = load i32, ptr %4, align 4, !tbaa !10
  %7 = and i32 %6, -128
  %8 = icmp ne i32 %7, 0
  br i1 %8, label %9, label %20

9:                                                ; preds = %5
  %10 = load i32, ptr %4, align 4, !tbaa !10
  %11 = and i32 %10, 127
  %12 = or i32 %11, 128
  %13 = trunc i32 %12 to i8
  %14 = load ptr, ptr %3, align 8, !tbaa !53
  %15 = getelementptr inbounds nuw %struct.Aig_CMan_t_, ptr %14, i32 0, i32 6
  %16 = load ptr, ptr %15, align 8, !tbaa !62
  %17 = getelementptr inbounds nuw i8, ptr %16, i32 1
  store ptr %17, ptr %15, align 8, !tbaa !62
  store i8 %13, ptr %16, align 1, !tbaa !63
  %18 = load i32, ptr %4, align 4, !tbaa !10
  %19 = lshr i32 %18, 7
  store i32 %19, ptr %4, align 4, !tbaa !10
  br label %5, !llvm.loop !64

20:                                               ; preds = %5
  %21 = load i32, ptr %4, align 4, !tbaa !10
  %22 = trunc i32 %21 to i8
  %23 = load ptr, ptr %3, align 8, !tbaa !53
  %24 = getelementptr inbounds nuw %struct.Aig_CMan_t_, ptr %23, i32 0, i32 6
  %25 = load ptr, ptr %24, align 8, !tbaa !62
  %26 = getelementptr inbounds nuw i8, ptr %25, i32 1
  store ptr %26, ptr %24, align 8, !tbaa !62
  store i8 %22, ptr %25, align 1, !tbaa !63
  ret void
}