; Function Attrs: nofree norecurse nosync nounwind memory(write, argmem: readwrite, inaccessiblemem: none) uwtable
define void @Aig_CManStoreNum(ptr noundef captures(none) %0, i32 noundef %1) local_unnamed_addr #13 {
  %.not5 = icmp ult i32 %1, 128
  br i1 %.not5, label %._crit_edge, label %.lr.ph

.lr.ph:                                           ; preds = %2
  %3 = getelementptr inbounds nuw i8, ptr %0, i64 24
  br label %4

4:                                                ; preds = %.lr.ph, %4
  %.06 = phi i32 [ %1, %.lr.ph ], [ %9, %4 ]
  %5 = trunc i32 %.06 to i8
  %6 = or i8 %5, -128
  %7 = load ptr, ptr %3, align 8, !tbaa !54
  %8 = getelementptr inbounds nuw i8, ptr %7, i64 1
  store ptr %8, ptr %3, align 8, !tbaa !54
  store i8 %6, ptr %7, align 1, !tbaa !25
  %9 = lshr i32 %.06, 7
  %.not = icmp ult i32 %.06, 16384
  br i1 %.not, label %._crit_edge, label %4, !llvm.loop !55

._crit_edge:                                      ; preds = %4, %2
  %.0.lcssa = phi i32 [ %1, %2 ], [ %9, %4 ]
  %10 = trunc nuw i32 %.0.lcssa to i8
  %11 = getelementptr inbounds nuw i8, ptr %0, i64 24
  %12 = load ptr, ptr %11, align 8, !tbaa !54
  %13 = getelementptr inbounds nuw i8, ptr %12, i64 1
  store ptr %13, ptr %11, align 8, !tbaa !54
  store i8 %10, ptr %12, align 1, !tbaa !25
  ret void
}